; Function Attrs: nounwind uwtable
define void @zend_argument_count_error(ptr noundef %0, ...) local_unnamed_addr #0 {
  %2 = alloca %struct.smart_string, align 8
  %3 = alloca [1 x %struct.__va_list_tag], align 16
  call void @llvm.va_start(ptr nonnull %3)
  call void @llvm.lifetime.start.p0(i64 24, ptr nonnull %2)
  call void @llvm.memset.p0.i64(ptr noundef nonnull align 8 dereferenceable(24) %2, i8 0, i64 24, i1 false)
  %4 = load ptr, ptr @zend_printf_to_smart_string, align 8
  call void %4(ptr noundef nonnull %2, ptr noundef %0, ptr noundef nonnull %3) #30
  %5 = load ptr, ptr %2, align 8
  %.not16.i = icmp eq ptr %5, null
  br i1 %.not16.i, label %.thread.i, label %6

6:                                                ; preds = %1
  %7 = getelementptr inbounds i8, ptr %2, i64 8
  %8 = load i64, ptr %7, align 8
  %9 = getelementptr inbounds i8, ptr %5, i64 %8
  store i8 0, ptr %9, align 1
  %.pr.i = load ptr, ptr %2, align 8
  %.not17.i = icmp eq ptr %.pr.i, null
  br i1 %.not17.i, label %.thread.i, label %zend_vspprintf.exit

.thread.i:                                        ; preds = %6, %1
  %10 = call noalias ptr @_estrndup(ptr noundef nonnull @.str, i64 noundef 0) #30
  br label %zend_vspprintf.exit

zend_vspprintf.exit:                              ; preds = %6, %.thread.i
  %.0 = phi ptr [ %10, %.thread.i ], [ %.pr.i, %6 ]
  call void @llvm.lifetime.end.p0(i64 24, ptr nonnull %2)
  %11 = load ptr, ptr @zend_ce_argument_count_error, align 8
  %12 = call ptr @zend_throw_exception(ptr noundef %11, ptr noundef %.0, i64 noundef 0) #30
  call void @_efree(ptr noundef %.0) #30
  call void @llvm.va_end(ptr nonnull %3)
  ret void
}